target datalayout = "e-m:e-p270:32:32-p271:32:32-p272:64:64-i64:64-i128:128-f80:128-n8:16:32:64-S128"
target triple = "x86_64-pc-linux-gnu"

%struct.mbedtls_asn1_buf = type { i32, i64, ptr }

; Function Attrs: nounwind uwtable
define hidden i32 @mbedtls_asn1_get_alg_null(ptr noundef %0, ptr noundef %1, ptr noundef %2) #0 {
  %4 = alloca i32, align 4
  %5 = alloca ptr, align 8
  %6 = alloca ptr, align 8
  %7 = alloca ptr, align 8
  %8 = alloca i32, align 4
  %9 = alloca %struct.mbedtls_asn1_buf, align 8
  %10 = alloca i32, align 4
  store ptr %0, ptr %5, align 8, !tbaa !3
  store ptr %1, ptr %6, align 8, !tbaa !9
  store ptr %2, ptr %7, align 8, !tbaa !46
  call void @llvm.lifetime.start.p0(i64 4, ptr %8) #7
  store i32 -110, ptr %8, align 4, !tbaa !16
  call void @llvm.lifetime.start.p0(i64 24, ptr %9) #7
  call void @llvm.memset.p0.i64(ptr align 8 %9, i8 0, i64 24, i1 false)
  %11 = load ptr, ptr %5, align 8, !tbaa !3
  %12 = load ptr, ptr %6, align 8, !tbaa !9
  %13 = load ptr, ptr %7, align 8, !tbaa !46
  %14 = call i32 @mbedtls_asn1_get_alg(ptr noundef %11, ptr noundef %12, ptr noundef %13, ptr noundef %9)
  store i32 %14, ptr %8, align 4, !tbaa !16
  %15 = icmp ne i32 %14, 0
  br i1 %15, label %16, label %18

16:                                               ; preds = %3
  %17 = load i32, ptr %8, align 4, !tbaa !16
  store i32 %17, ptr %4, align 4
  store i32 1, ptr %10, align 4
  br label %32

18:                                               ; preds = %3
  %19 = getelementptr inbounds nuw %struct.mbedtls_asn1_buf, ptr %9, i32 0, i32 0
  %20 = load i32, ptr %19, align 8, !tbaa !48
  %21 = icmp ne i32 %20, 5
  br i1 %21, label %22, label %26

22:                                               ; preds = %18
  %23 = getelementptr inbounds nuw %struct.mbedtls_asn1_buf, ptr %9, i32 0, i32 0
  %24 = load i32, ptr %23, align 8, !tbaa !48
  %25 = icmp ne i32 %24, 0
  br i1 %25, label %30, label %26

26:                                               ; preds = %22, %18
  %27 = getelementptr inbounds nuw %struct.mbedtls_asn1_buf, ptr %9, i32 0, i32 1
  %28 = load i64, ptr %27, align 8, !tbaa !50
  %29 = icmp ne i64 %28, 0
  br i1 %29, label %30, label %31

30:                                               ; preds = %26, %22
  store i32 -104, ptr %4, align 4
  store i32 1, ptr %10, align 4
  br label %32

31:                                               ; preds = %26
  store i32 0, ptr %4, align 4
  store i32 1, ptr %10, align 4
  br label %32

32:                                               ; preds = %31, %30, %16
  call void @llvm.lifetime.end.p0(i64 24, ptr %9) #7
  call void @llvm.lifetime.end.p0(i64 4, ptr %8) #7
  %33 = load i32, ptr %4, align 4
  ret i32 %33
}