; Function Attrs: nounwind uwtable
define hidden range(i32 -104, 1) i32 @mbedtls_asn1_get_alg_null(ptr noundef captures(none) %0, ptr noundef %1, ptr noundef writeonly captures(none) %2) local_unnamed_addr #2 {
  %4 = alloca %struct.mbedtls_asn1_buf, align 8
  call void @llvm.lifetime.start.p0(i64 24, ptr nonnull %4) #10
  call void @llvm.memset.p0.i64(ptr noundef nonnull align 8 dereferenceable(24) %4, i8 0, i64 24, i1 false)
  %5 = call i32 @mbedtls_asn1_get_alg(ptr noundef %0, ptr noundef %1, ptr noundef %2, ptr noundef nonnull %4)
  %.not = icmp eq i32 %5, 0
  br i1 %.not, label %6, label %13

6:                                                ; preds = %3
  %7 = load i32, ptr %4, align 8, !tbaa !33
  %8 = icmp ne i32 %7, 5
  %9 = icmp ne i32 %7, 0
  %or.cond = and i1 %8, %9
  %10 = getelementptr inbounds nuw i8, ptr %4, i64 8
  %11 = load i64, ptr %10, align 8
  %12 = icmp ne i64 %11, 0
  %or.cond5 = select i1 %or.cond, i1 true, i1 %12
  %. = select i1 %or.cond5, i32 -104, i32 0
  br label %13

13:                                               ; preds = %6, %3
  %.0 = phi i32 [ %5, %3 ], [ %., %6 ]
  call void @llvm.lifetime.end.p0(i64 24, ptr nonnull %4) #10
  ret i32 %.0
}